target datalayout = "e-m:e-p270:32:32-p271:32:32-p272:64:64-i64:64-i128:128-f80:128-n8:16:32:64-S128"
target triple = "x86_64-pc-linux-gnu"

%"class.cv::Mat" = type { i32, i32, i32, i32, ptr, ptr, ptr, ptr, ptr, ptr, %"struct.cv::MatSize", %"struct.cv::MatStep" }
%"struct.cv::MatSize" = type { ptr }
%"struct.cv::MatStep" = type { ptr, [2 x i64] }
%"class.cv::MatConstIterator" = type { ptr, i64, ptr, ptr, ptr }

; Function Attrs: inlinehint mustprogress nounwind uwtable
define linkonce_odr hidden noundef nonnull align 4 dereferenceable(4) ptr @_ZNK2cv7MatSizeixEi(ptr noundef nonnull align 8 dereferenceable(8) %0, i32 noundef %1) #4 comdat align 2 {
  %3 = alloca ptr, align 8
  %4 = alloca i32, align 4
  store ptr %0, ptr %3, align 8, !tbaa !51
  store i32 %1, ptr %4, align 4, !tbaa !25
  %5 = load ptr, ptr %3, align 8
  %6 = getelementptr inbounds nuw %"struct.cv::MatSize", ptr %5, i32 0, i32 0
  %7 = load ptr, ptr %6, align 8, !tbaa !53
  %8 = load i32, ptr %4, align 4, !tbaa !25
  %9 = sext i32 %8 to i64
  %10 = getelementptr inbounds i32, ptr %7, i64 %9
  ret ptr %10
}

; Function Attrs: mustprogress uwtable
define void @_ZN2cv16MatConstIterator4seekEPKib(ptr noundef nonnull align 8 dereferenceable(40) %0, ptr noundef %1, i1 noundef zeroext %2) #1 align 2 {
  %4 = alloca ptr, align 8
  %5 = alloca ptr, align 8
  %6 = alloca i8, align 1
  %7 = alloca i32, align 4
  %8 = alloca i64, align 8
  %9 = alloca i32, align 4
  store ptr %0, ptr %4, align 8, !tbaa !65
  store ptr %1, ptr %5, align 8, !tbaa !59
  %10 = zext i1 %2 to i8
  store i8 %10, ptr %6, align 1, !tbaa !80
  %11 = load ptr, ptr %4, align 8
  call void @llvm.lifetime.start.p0(i64 4, ptr %7) #12
  %12 = getelementptr inbounds nuw %"class.cv::MatConstIterator", ptr %11, i32 0, i32 0
  %13 = load ptr, ptr %12, align 8, !tbaa !67
  %14 = getelementptr inbounds nuw %"class.cv::Mat", ptr %13, i32 0, i32 1
  %15 = load i32, ptr %14, align 4, !tbaa !39
  store i32 %15, ptr %7, align 4, !tbaa !25
  call void @llvm.lifetime.start.p0(i64 8, ptr %8) #12
  store i64 0, ptr %8, align 8, !tbaa !41
  %16 = load ptr, ptr %5, align 8, !tbaa !59
  %17 = icmp ne ptr %16, null
  br i1 %17, label %19, label %18

18:                                               ; preds = %3
  br label %65

19:                                               ; preds = %3
  %20 = load i32, ptr %7, align 4, !tbaa !25
  %21 = icmp eq i32 %20, 2
  br i1 %21, label %22, label %37

22:                                               ; preds = %19
  %23 = load ptr, ptr %5, align 8, !tbaa !59
  %24 = getelementptr inbounds i32, ptr %23, i64 0
  %25 = load i32, ptr %24, align 4, !tbaa !25
  %26 = getelementptr inbounds nuw %"class.cv::MatConstIterator", ptr %11, i32 0, i32 0
  %27 = load ptr, ptr %26, align 8, !tbaa !67
  %28 = getelementptr inbounds nuw %"class.cv::Mat", ptr %27, i32 0, i32 10
  %29 = call noundef nonnull align 4 dereferenceable(4) ptr @_ZNK2cv7MatSizeixEi(ptr noundef nonnull align 8 dereferenceable(8) %28, i32 noundef 1)
  %30 = load i32, ptr %29, align 4, !tbaa !25
  %31 = mul nsw i32 %25, %30
  %32 = load ptr, ptr %5, align 8, !tbaa !59
  %33 = getelementptr inbounds i32, ptr %32, i64 1
  %34 = load i32, ptr %33, align 4, !tbaa !25
  %35 = add nsw i32 %31, %34
  %36 = sext i32 %35 to i64
  store i64 %36, ptr %8, align 8, !tbaa !41
  br label %64

37:                                               ; preds = %19
  call void @llvm.lifetime.start.p0(i64 4, ptr %9) #12
  store i32 0, ptr %9, align 4, !tbaa !25
  br label %38

38:                                               ; preds = %60, %37
  %39 = load i32, ptr %9, align 4, !tbaa !25
  %40 = load i32, ptr %7, align 4, !tbaa !25
  %41 = icmp slt i32 %39, %40
  br i1 %41, label %43, label %42

42:                                               ; preds = %38
  call void @llvm.lifetime.end.p0(i64 4, ptr %9) #12
  br label %63

43:                                               ; preds = %38
  %44 = load i64, ptr %8, align 8, !tbaa !41
  %45 = getelementptr inbounds nuw %"class.cv::MatConstIterator", ptr %11, i32 0, i32 0
  %46 = load ptr, ptr %45, align 8, !tbaa !67
  %47 = getelementptr inbounds nuw %"class.cv::Mat", ptr %46, i32 0, i32 10
  %48 = load i32, ptr %9, align 4, !tbaa !25
  %49 = call noundef nonnull align 4 dereferenceable(4) ptr @_ZNK2cv7MatSizeixEi(ptr noundef nonnull align 8 dereferenceable(8) %47, i32 noundef %48)
  %50 = load i32, ptr %49, align 4, !tbaa !25
  %51 = sext i32 %50 to i64
  %52 = mul nsw i64 %44, %51
  %53 = load ptr, ptr %5, align 8, !tbaa !59
  %54 = load i32, ptr %9, align 4, !tbaa !25
  %55 = sext i32 %54 to i64
  %56 = getelementptr inbounds i32, ptr %53, i64 %55
  %57 = load i32, ptr %56, align 4, !tbaa !25
  %58 = sext i32 %57 to i64
  %59 = add nsw i64 %52, %58
  store i64 %59, ptr %8, align 8, !tbaa !41
  br label %60

60:                                               ; preds = %43
  %61 = load i32, ptr %9, align 4, !tbaa !25
  %62 = add nsw i32 %61, 1
  store i32 %62, ptr %9, align 4, !tbaa !25
  br label %38, !llvm.loop !87

63:                                               ; preds = %42
  br label %64

64:                                               ; preds = %63, %22
  br label %65

65:                                               ; preds = %64, %18
  %66 = load i64, ptr %8, align 8, !tbaa !41
  %67 = load i8, ptr %6, align 1, !tbaa !80, !range !82, !noundef !83
  %68 = trunc i8 %67 to i1
  call void @_ZN2cv16MatConstIterator4seekElb(ptr noundef nonnull align 8 dereferenceable(40) %11, i64 noundef %66, i1 noundef zeroext %68)
  call void @llvm.lifetime.end.p0(i64 8, ptr %8) #12
  call void @llvm.lifetime.end.p0(i64 4, ptr %7) #12
  ret void
}