; Function Attrs: mustprogress nofree norecurse nosync nounwind memory(read, argmem: readwrite, inaccessiblemem: none) uwtable
define void @_ZN2cv16MatConstIterator4seekEPKib(ptr noundef nonnull align 8 captures(none) dereferenceable(40) %0, ptr noundef readonly %1, i1 noundef zeroext %2) local_unnamed_addr #9 align 2 {
  %4 = load ptr, ptr %0, align 8, !tbaa !57
  %5 = getelementptr inbounds nuw i8, ptr %4, i64 4
  %6 = load i32, ptr %5, align 4, !tbaa !36
  %.not = icmp eq ptr %1, null
  br i1 %.not, label %.loopexit, label %7

7:                                                ; preds = %3
  %8 = icmp eq i32 %6, 2
  br i1 %8, label %12, label %.preheader

.preheader:                                       ; preds = %7
  %9 = icmp sgt i32 %6, 0
  br i1 %9, label %.lr.ph, label %.loopexit

.lr.ph:                                           ; preds = %.preheader
  %10 = getelementptr inbounds nuw i8, ptr %4, i64 64
  %11 = load ptr, ptr %10, align 8, !tbaa !37
  %wide.trip.count = zext nneg i32 %6 to i64
  br label %23

12:                                               ; preds = %7
  %13 = load i32, ptr %1, align 4, !tbaa !38
  %14 = getelementptr inbounds nuw i8, ptr %4, i64 64
  %15 = load ptr, ptr %14, align 8, !tbaa !37
  %16 = getelementptr inbounds nuw i8, ptr %15, i64 4
  %17 = load i32, ptr %16, align 4, !tbaa !38
  %18 = mul nsw i32 %17, %13
  %19 = getelementptr inbounds nuw i8, ptr %1, i64 4
  %20 = load i32, ptr %19, align 4, !tbaa !38
  %21 = add nsw i32 %18, %20
  %22 = sext i32 %21 to i64
  br label %.loopexit

23:                                               ; preds = %.lr.ph, %23
  %indvars.iv = phi i64 [ 0, %.lr.ph ], [ %indvars.iv.next, %23 ]
  %.116 = phi i64 [ 0, %.lr.ph ], [ %31, %23 ]
  %24 = getelementptr inbounds nuw i32, ptr %11, i64 %indvars.iv
  %25 = load i32, ptr %24, align 4, !tbaa !38
  %26 = sext i32 %25 to i64
  %27 = mul nsw i64 %.116, %26
  %28 = getelementptr inbounds nuw i32, ptr %1, i64 %indvars.iv
  %29 = load i32, ptr %28, align 4, !tbaa !38
  %30 = sext i32 %29 to i64
  %31 = add nsw i64 %27, %30
  %indvars.iv.next = add nuw nsw i64 %indvars.iv, 1
  %exitcond.not = icmp eq i64 %indvars.iv.next, %wide.trip.count
  br i1 %exitcond.not, label %.loopexit, label %23, !llvm.loop !69

.loopexit:                                        ; preds = %23, %.preheader, %12, %3
  %.013 = phi i64 [ %22, %12 ], [ 0, %3 ], [ 0, %.preheader ], [ %31, %23 ]
  tail call void @_ZN2cv16MatConstIterator4seekElb(ptr noundef nonnull align 8 dereferenceable(40) %0, i64 noundef %.013, i1 noundef zeroext %2)
  ret void
}